; Function Attrs: mustprogress uwtable
define hidden noundef ptr @_ZN13pdecl_manager22mk_psort_type_var_declERK6symbol(ptr nocapture noundef nonnull align 8 dereferenceable(192) %this, ptr nocapture noundef nonnull readonly align 8 dereferenceable(8) %n) local_unnamed_addr #3 align 2 {
entry:
  %m_allocator.i = getelementptr inbounds i8, ptr %this, i64 8
  %0 = load ptr, ptr %m_allocator.i, align 8
  %call2 = tail call noundef ptr @_ZN22small_object_allocator8allocateEm(ptr noundef nonnull align 8 dereferenceable(520) %0, i64 noundef 56)
  %m_id_gen = getelementptr inbounds i8, ptr %this, i64 16
  %m_free_ids.i = getelementptr inbounds i8, ptr %this, i64 24
  %1 = load ptr, ptr %m_free_ids.i, align 8
  %cmp.i.i = icmp eq ptr %1, null
  br i1 %cmp.i.i, label %if.then.i, label %_ZNK6vectorIjLb0EjE5emptyEv.exit.i

_ZNK6vectorIjLb0EjE5emptyEv.exit.i:               ; preds = %entry
  %arrayidx.i.i = getelementptr inbounds i8, ptr %1, i64 -4
  %2 = load i32, ptr %arrayidx.i.i, align 4
  %cmp3.i.i = icmp eq i32 %2, 0
  br i1 %cmp3.i.i, label %if.then.i, label %_ZN6vectorIjLb0EjE4backEv.exit.i

if.then.i:                                        ; preds = %_ZNK6vectorIjLb0EjE5emptyEv.exit.i, %entry
  %3 = load i32, ptr %m_id_gen, align 8
  %inc.i = add i32 %3, 1
  store i32 %inc.i, ptr %m_id_gen, align 8
  br label %_ZN6id_gen2mkEv.exit

_ZN6vectorIjLb0EjE4backEv.exit.i:                 ; preds = %_ZNK6vectorIjLb0EjE5emptyEv.exit.i
  %4 = add i32 %2, -1
  %5 = zext i32 %4 to i64
  %arrayidx.i1.i.i = getelementptr inbounds i32, ptr %1, i64 %5
  %6 = load i32, ptr %arrayidx.i1.i.i, align 4
  store i32 %4, ptr %arrayidx.i.i, align 4
  br label %_ZN6id_gen2mkEv.exit

_ZN6id_gen2mkEv.exit:                             ; preds = %if.then.i, %_ZN6vectorIjLb0EjE4backEv.exit.i
  %r.0.i = phi i32 [ %3, %if.then.i ], [ %6, %_ZN6vectorIjLb0EjE4backEv.exit.i ]
  %m_id.i.i.i = getelementptr inbounds i8, ptr %call2, i64 8
  store i32 %r.0.i, ptr %m_id.i.i.i, align 8
  %m_num_params.i.i.i = getelementptr inbounds i8, ptr %call2, i64 12
  store i32 0, ptr %m_num_params.i.i.i, align 4
  %m_ref_count.i.i.i = getelementptr inbounds i8, ptr %call2, i64 16
  store i32 0, ptr %m_ref_count.i.i.i, align 8
  store ptr getelementptr inbounds ({ [13 x ptr] }, ptr @_ZTV10psort_decl, i64 0, i32 0, i64 2), ptr %call2, align 8
  %m_name.i.i = getelementptr inbounds i8, ptr %call2, i64 24
  %7 = load i64, ptr %n, align 8
  store i64 %7, ptr %m_name.i.i, align 8
  %m_psort_kind.i.i = getelementptr inbounds i8, ptr %call2, i64 32
  %m_inst_cache.i.i = getelementptr inbounds i8, ptr %call2, i64 40
  store ptr null, ptr %m_inst_cache.i.i, align 8
  store ptr getelementptr inbounds ({ [13 x ptr] }, ptr @_ZTV19psort_type_var_decl, i64 0, i32 0, i64 2), ptr %call2, align 8
  store i32 4, ptr %m_psort_kind.i.i, align 8
  ret ptr %call2
}